; Function Attrs: nounwind uwtable
define i32 @dlp_get_ssn_count(ptr noundef %0, i64 noundef %1) local_unnamed_addr #0 {
  %3 = icmp eq ptr %0, null
  %4 = icmp ult i64 %1, 9
  %or.cond.i.i = or i1 %3, %4
  br i1 %or.cond.i.i, label %dlp_get_normal_ssn_count.exit, label %5

5:                                                ; preds = %2
  %6 = getelementptr inbounds i8, ptr %0, i64 %1
  %7 = icmp sgt i64 %1, 0
  br i1 %7, label %.lr.ph.i.i, label %dlp_get_normal_ssn_count.exit

.lr.ph.i.i:                                       ; preds = %5
  %8 = tail call ptr @__ctype_b_loc() #9
  %9 = ptrtoint ptr %0 to i64
  %.neg.i.i = add i64 %1, %9
  br label %.lr.ph.split.i.i

.lr.ph.split.i.i:                                 ; preds = %32, %.lr.ph.i.i
  %.033.i.i = phi i32 [ %.1.i.i, %32 ], [ 0, %.lr.ph.i.i ]
  %.02432.i.i = phi ptr [ %33, %32 ], [ %0, %.lr.ph.i.i ]
  %10 = load ptr, ptr %8, align 8
  %11 = load i8, ptr %.02432.i.i, align 1
  %12 = zext i8 %11 to i64
  %13 = getelementptr inbounds nuw i16, ptr %10, i64 %12
  %14 = load i16, ptr %13, align 2
  %15 = and i16 %14, 2048
  %.not.i.i = icmp eq i16 %15, 0
  br i1 %.not.i.i, label %32, label %16

16:                                               ; preds = %.lr.ph.split.i.i
  %17 = icmp eq ptr %.02432.i.i, %0
  br i1 %17, label %25, label %18

18:                                               ; preds = %16
  %19 = getelementptr inbounds i8, ptr %.02432.i.i, i64 -1
  %20 = load i8, ptr %19, align 1
  %21 = zext i8 %20 to i64
  %22 = getelementptr inbounds nuw i16, ptr %10, i64 %21
  %23 = load i16, ptr %22, align 2
  %24 = and i16 %23, 2048
  %.not28.i.i = icmp eq i16 %24, 0
  br i1 %.not28.i.i, label %25, label %32

25:                                               ; preds = %18, %16
  %26 = ptrtoint ptr %.02432.i.i to i64
  %27 = sub i64 %.neg.i.i, %26
  %28 = tail call i32 @dlp_is_valid_ssn(ptr noundef nonnull %.02432.i.i, i64 noundef %27, i32 noundef 1)
  %.not29.i.i = icmp eq i32 %28, 0
  br i1 %.not29.i.i, label %32, label %29

29:                                               ; preds = %25
  %30 = add nsw i32 %.033.i.i, 1
  %31 = getelementptr inbounds nuw i8, ptr %.02432.i.i, i64 9
  br label %32

32:                                               ; preds = %29, %25, %18, %.lr.ph.split.i.i
  %.125.i.i = phi ptr [ %31, %29 ], [ %.02432.i.i, %25 ], [ %.02432.i.i, %18 ], [ %.02432.i.i, %.lr.ph.split.i.i ]
  %.1.i.i = phi i32 [ %30, %29 ], [ %.033.i.i, %25 ], [ %.033.i.i, %18 ], [ %.033.i.i, %.lr.ph.split.i.i ]
  %33 = getelementptr inbounds nuw i8, ptr %.125.i.i, i64 1
  %34 = icmp ult ptr %33, %6
  br i1 %34, label %.lr.ph.split.i.i, label %.lr.ph.split.i.i7

.lr.ph.split.i.i7:                                ; preds = %32, %57
  %.033.i.i8 = phi i32 [ %.1.i.i13, %57 ], [ 0, %32 ]
  %.02432.i.i9 = phi ptr [ %58, %57 ], [ %0, %32 ]
  %35 = load ptr, ptr %8, align 8
  %36 = load i8, ptr %.02432.i.i9, align 1
  %37 = zext i8 %36 to i64
  %38 = getelementptr inbounds nuw i16, ptr %35, i64 %37
  %39 = load i16, ptr %38, align 2
  %40 = and i16 %39, 2048
  %.not.i.i10 = icmp eq i16 %40, 0
  br i1 %.not.i.i10, label %57, label %41

41:                                               ; preds = %.lr.ph.split.i.i7
  %42 = icmp eq ptr %.02432.i.i9, %0
  br i1 %42, label %50, label %43

43:                                               ; preds = %41
  %44 = getelementptr inbounds i8, ptr %.02432.i.i9, i64 -1
  %45 = load i8, ptr %44, align 1
  %46 = zext i8 %45 to i64
  %47 = getelementptr inbounds nuw i16, ptr %35, i64 %46
  %48 = load i16, ptr %47, align 2
  %49 = and i16 %48, 2048
  %.not28.i.i11 = icmp eq i16 %49, 0
  br i1 %.not28.i.i11, label %50, label %57

50:                                               ; preds = %43, %41
  %51 = ptrtoint ptr %.02432.i.i9 to i64
  %52 = sub i64 %.neg.i.i, %51
  %53 = tail call i32 @dlp_is_valid_ssn(ptr noundef nonnull %.02432.i.i9, i64 noundef %52, i32 noundef 0)
  %.not29.i.i14 = icmp eq i32 %53, 0
  br i1 %.not29.i.i14, label %57, label %54

54:                                               ; preds = %50
  %55 = add nsw i32 %.033.i.i8, 1
  %56 = getelementptr inbounds nuw i8, ptr %.02432.i.i9, i64 11
  br label %57

57:                                               ; preds = %54, %50, %43, %.lr.ph.split.i.i7
  %.125.i.i12 = phi ptr [ %56, %54 ], [ %.02432.i.i9, %50 ], [ %.02432.i.i9, %43 ], [ %.02432.i.i9, %.lr.ph.split.i.i7 ]
  %.1.i.i13 = phi i32 [ %55, %54 ], [ %.033.i.i8, %50 ], [ %.033.i.i8, %43 ], [ %.033.i.i8, %.lr.ph.split.i.i7 ]
  %58 = getelementptr inbounds nuw i8, ptr %.125.i.i12, i64 1
  %59 = icmp ult ptr %58, %6
  br i1 %59, label %.lr.ph.split.i.i7, label %dlp_get_normal_ssn_count.exit

dlp_get_normal_ssn_count.exit:                    ; preds = %57, %5, %2
  %.023.i.i16 = phi i32 [ 0, %2 ], [ 0, %5 ], [ %.1.i.i, %57 ]
  %.023.i.i4 = phi i32 [ 0, %2 ], [ 0, %5 ], [ %.1.i.i13, %57 ]
  %60 = add nsw i32 %.023.i.i4, %.023.i.i16
  ret i32 %60
}